; Function Attrs: mustprogress uwtable
define noundef ptr @_ZN6icu_7717StringEnumeration5snextER10UErrorCode(ptr noundef nonnull align 8 dereferenceable(116) %0, ptr noundef nonnull align 4 dereferenceable(4) %1) unnamed_addr #9 align 2 {
  %3 = alloca i32, align 4
  call void @llvm.lifetime.start.p0(i64 4, ptr nonnull %3) #18
  %4 = load ptr, ptr %0, align 8, !tbaa !3
  %5 = getelementptr inbounds nuw i8, ptr %4, i64 40
  %6 = load ptr, ptr %5, align 8
  %7 = call noundef ptr %6(ptr noundef nonnull align 8 dereferenceable(116) %0, ptr noundef nonnull %3, ptr noundef nonnull align 4 dereferenceable(4) %1)
  %8 = load i32, ptr %1, align 4, !tbaa !17
  %9 = icmp slt i32 %8, 1
  %10 = icmp ne ptr %7, null
  %or.cond.i = and i1 %10, %9
  br i1 %or.cond.i, label %11, label %_ZN6icu_7717StringEnumeration8setCharsEPKciR10UErrorCode.exit

11:                                               ; preds = %2
  %12 = load i32, ptr %3, align 4, !tbaa !19
  %13 = icmp slt i32 %12, 0
  br i1 %13, label %14, label %17

14:                                               ; preds = %11
  %15 = call i64 @strlen(ptr noundef nonnull dereferenceable(1) %7) #21
  %16 = trunc i64 %15 to i32
  br label %17

17:                                               ; preds = %14, %11
  %.017.i = phi i32 [ %16, %14 ], [ %12, %11 ]
  %18 = getelementptr inbounds nuw i8, ptr %0, i64 8
  %19 = add nsw i32 %.017.i, 1
  %20 = call noundef ptr @_ZN6icu_7713UnicodeString9getBufferEi(ptr noundef nonnull align 8 dereferenceable(64) %18, i32 noundef %19)
  %.not.not.i = icmp eq ptr %20, null
  br i1 %.not.not.i, label %.thread.i, label %21

.thread.i:                                        ; preds = %17
  store i32 7, ptr %1, align 4, !tbaa !17
  br label %_ZN6icu_7717StringEnumeration8setCharsEPKciR10UErrorCode.exit

21:                                               ; preds = %17
  call void @u_charsToUChars_77(ptr noundef nonnull %7, ptr noundef nonnull %20, i32 noundef %.017.i)
  %22 = sext i32 %.017.i to i64
  %23 = getelementptr inbounds i16, ptr %20, i64 %22
  store i16 0, ptr %23, align 2, !tbaa !20
  call void @_ZN6icu_7713UnicodeString13releaseBufferEi(ptr noundef nonnull align 8 dereferenceable(64) %18, i32 noundef %.017.i)
  br label %_ZN6icu_7717StringEnumeration8setCharsEPKciR10UErrorCode.exit

_ZN6icu_7717StringEnumeration8setCharsEPKciR10UErrorCode.exit: ; preds = %2, %.thread.i, %21
  %.1.i = phi ptr [ %18, %21 ], [ null, %.thread.i ], [ null, %2 ]
  call void @llvm.lifetime.end.p0(i64 4, ptr nonnull %3) #18
  ret ptr %.1.i
}